target datalayout = "e-m:e-p270:32:32-p271:32:32-p272:64:64-i64:64-i128:128-f80:128-n8:16:32:64-S128"
target triple = "x86_64-unknown-linux-gnu"

%"class.google::protobuf::internal::InternalMetadata" = type { i64 }
%"class.google::protobuf::internal::HasBits" = type { [1 x i32] }
%"class.google::protobuf::internal::CachedSize" = type { i32 }
%"struct.google::protobuf::internal::ArenaStringPtr" = type { %"class.google::protobuf::internal::TaggedStringPtr" }
%"class.google::protobuf::internal::TaggedStringPtr" = type { ptr }
%"class.google::protobuf::compiler::Version" = type { %"class.google::protobuf::Message", %union.anon }
%"class.google::protobuf::Message" = type { %"class.google::protobuf::MessageLite" }
%"class.google::protobuf::MessageLite" = type { ptr, %"class.google::protobuf::internal::InternalMetadata" }
%union.anon = type { %"struct.google::protobuf::compiler::Version::Impl_" }
%"struct.google::protobuf::compiler::Version::Impl_" = type <{ %"class.google::protobuf::internal::HasBits", %"class.google::protobuf::internal::CachedSize", %"struct.google::protobuf::internal::ArenaStringPtr", i32, i32, i32, [4 x i8] }>
%"struct.google::protobuf::internal::InternalMetadata::Container" = type { %"struct.google::protobuf::internal::InternalMetadata::ContainerBase", %"class.google::protobuf::UnknownFieldSet" }
%"struct.google::protobuf::internal::InternalMetadata::ContainerBase" = type { ptr }
%"class.google::protobuf::UnknownFieldSet" = type { %"class.std::vector" }
%"class.std::vector" = type { %"struct.std::_Vector_base" }
%"struct.std::_Vector_base" = type { %"struct.std::_Vector_base<google::protobuf::UnknownField, std::allocator<google::protobuf::UnknownField>>::_Vector_impl" }
%"struct.std::_Vector_base<google::protobuf::UnknownField, std::allocator<google::protobuf::UnknownField>>::_Vector_impl" = type { %"struct.std::_Vector_base<google::protobuf::UnknownField, std::allocator<google::protobuf::UnknownField>>::_Vector_impl_data" }
%"struct.std::_Vector_base<google::protobuf::UnknownField, std::allocator<google::protobuf::UnknownField>>::_Vector_impl_data" = type { ptr, ptr, ptr }
%"class.absl::lts_20230802::log_internal::NullStream" = type { i8 }

; Function Attrs: mustprogress nounwind uwtable
define linkonce_odr hidden noundef i64 @_ZNK6google8protobuf8internal15TaggedStringPtr6as_intEv(ptr noundef nonnull align 8 dereferenceable(8) %this) #5 comdat align 2 {
entry:
  %this.addr = alloca ptr, align 8
  store ptr %this, ptr %this.addr, align 8
  %this1 = load ptr, ptr %this.addr, align 8
  %ptr_ = getelementptr inbounds %"class.google::protobuf::internal::TaggedStringPtr", ptr %this1, i32 0, i32 0
  %0 = load ptr, ptr %ptr_, align 8
  %1 = ptrtoint ptr %0 to i64
  ret i64 %1
}

; Function Attrs: mustprogress nounwind uwtable
define linkonce_odr hidden noundef ptr @_ZNK6google8protobuf8internal16InternalMetadata8PtrValueINS0_5ArenaEEEPT_v(ptr noundef nonnull align 8 dereferenceable(8) %this) #5 comdat align 2 {
entry:
  %this.addr = alloca ptr, align 8
  store ptr %this, ptr %this.addr, align 8
  %this1 = load ptr, ptr %this.addr, align 8
  %ptr_ = getelementptr inbounds %"class.google::protobuf::internal::InternalMetadata", ptr %this1, i32 0, i32 0
  %0 = load i64, ptr %ptr_, align 8
  %and = and i64 %0, -2
  %1 = inttoptr i64 %and to ptr
  ret ptr %1
}

; Function Attrs: mustprogress nounwind uwtable
define linkonce_odr hidden noundef ptr @_ZNK6google8protobuf8internal16InternalMetadata8PtrValueINS2_13ContainerBaseEEEPT_v(ptr noundef nonnull align 8 dereferenceable(8) %this) #5 comdat align 2 {
entry:
  %this.addr = alloca ptr, align 8
  store ptr %this, ptr %this.addr, align 8
  %this1 = load ptr, ptr %this.addr, align 8
  %ptr_ = getelementptr inbounds %"class.google::protobuf::internal::InternalMetadata", ptr %this1, i32 0, i32 0
  %0 = load i64, ptr %ptr_, align 8
  %and = and i64 %0, -2
  %1 = inttoptr i64 %and to ptr
  ret ptr %1
}

; Function Attrs: mustprogress nounwind uwtable
define linkonce_odr hidden noundef ptr @_ZNK6google8protobuf8internal15TaggedStringPtr3GetB5cxx11Ev(ptr noundef nonnull align 8 dereferenceable(8) %this) #5 comdat align 2 {
entry:
  %this.addr = alloca ptr, align 8
  store ptr %this, ptr %this.addr, align 8
  %this1 = load ptr, ptr %this.addr, align 8
  %call = call noundef i64 @_ZNK6google8protobuf8internal15TaggedStringPtr6as_intEv(ptr noundef nonnull align 8 dereferenceable(8) %this1)
  %and = and i64 %call, -4
  %0 = inttoptr i64 %and to ptr
  ret ptr %0
}

; Function Attrs: mustprogress nounwind uwtable
define linkonce_odr hidden noundef ptr @_ZNK6google8protobuf8internal16InternalMetadata8PtrValueINS2_9ContainerINS0_15UnknownFieldSetEEEEEPT_v(ptr noundef nonnull align 8 dereferenceable(8) %this) #5 comdat align 2 {
entry:
  %this.addr = alloca ptr, align 8
  store ptr %this, ptr %this.addr, align 8
  %this1 = load ptr, ptr %this.addr, align 8
  %ptr_ = getelementptr inbounds %"class.google::protobuf::internal::InternalMetadata", ptr %this1, i32 0, i32 0
  %0 = load i64, ptr %ptr_, align 8
  %and = and i64 %0, -2
  %1 = inttoptr i64 %and to ptr
  ret ptr %1
}

; Function Attrs: mustprogress uwtable
define linkonce_odr hidden noundef ptr @_ZNK6google8protobuf11MessageLite8GetArenaEv(ptr noundef nonnull align 8 dereferenceable(16) %this) #4 comdat align 2 {
entry:
  %this.addr.i4.i = alloca ptr, align 8
  %this.addr.i.i = alloca ptr, align 8
  %retval.i = alloca ptr, align 8
  %this.addr.i = alloca ptr, align 8
  %this.addr = alloca ptr, align 8
  store ptr %this, ptr %this.addr, align 8
  %this1 = load ptr, ptr %this.addr, align 8
  %_internal_metadata_ = getelementptr inbounds %"class.google::protobuf::MessageLite", ptr %this1, i32 0, i32 1
  store ptr %_internal_metadata_, ptr %this.addr.i, align 8
  %this1.i = load ptr, ptr %this.addr.i, align 8
  store ptr %this1.i, ptr %this.addr.i.i, align 8
  %this1.i.i = load ptr, ptr %this.addr.i.i, align 8
  store ptr %this1.i.i, ptr %this.addr.i4.i, align 8
  %this1.i5.i = load ptr, ptr %this.addr.i4.i, align 8
  %0 = load i64, ptr %this1.i5.i, align 8
  %and.i.i = and i64 %0, 1
  %tobool.i.i = icmp ne i64 %and.i.i, 0
  br i1 %tobool.i.i, label %if.then.i, label %if.else.i

if.then.i:                                        ; preds = %entry
  %call2.i = call noundef ptr @_ZNK6google8protobuf8internal16InternalMetadata8PtrValueINS2_13ContainerBaseEEEPT_v(ptr noundef nonnull align 8 dereferenceable(8) %this1.i)
  %1 = load ptr, ptr %call2.i, align 8
  store ptr %1, ptr %retval.i, align 8
  br label %_ZNK6google8protobuf8internal16InternalMetadata5arenaEv.exit

if.else.i:                                        ; preds = %entry
  %call3.i = call noundef ptr @_ZNK6google8protobuf8internal16InternalMetadata8PtrValueINS0_5ArenaEEEPT_v(ptr noundef nonnull align 8 dereferenceable(8) %this1.i)
  store ptr %call3.i, ptr %retval.i, align 8
  br label %_ZNK6google8protobuf8internal16InternalMetadata5arenaEv.exit

_ZNK6google8protobuf8internal16InternalMetadata5arenaEv.exit: ; preds = %if.else.i, %if.then.i
  %2 = load ptr, ptr %retval.i, align 8
  ret ptr %2
}

; Function Attrs: mustprogress uwtable
define linkonce_odr hidden noundef nonnull align 8 dereferenceable(32) ptr @_ZNK6google8protobuf8compiler7Version16_internal_suffixB5cxx11Ev(ptr noundef nonnull align 8 dereferenceable(48) %this) #4 comdat align 2 {
entry:
  %this.addr.i = alloca ptr, align 8
  %this.addr = alloca ptr, align 8
  store ptr %this, ptr %this.addr, align 8
  %this1 = load ptr, ptr %this.addr, align 8
  %0 = getelementptr inbounds %"class.google::protobuf::compiler::Version", ptr %this1, i32 0, i32 1
  %suffix_ = getelementptr inbounds %"struct.google::protobuf::compiler::Version::Impl_", ptr %0, i32 0, i32 2
  store ptr %suffix_, ptr %this.addr.i, align 8
  %this1.i = load ptr, ptr %this.addr.i, align 8
  %call.i = call noundef nonnull align 8 dereferenceable(32) ptr @_ZNK6google8protobuf8internal15TaggedStringPtr3GetB5cxx11Ev(ptr noundef nonnull align 8 dereferenceable(8) %this1.i)
  ret ptr %call.i
}

; Function Attrs: mustprogress nounwind uwtable
define linkonce_odr hidden noundef nonnull align 1 dereferenceable(1) ptr @_ZN4absl12lts_2023080212log_internal10NullStream14InternalStreamEv(ptr noundef nonnull align 1 dereferenceable(1) %this) #5 comdat align 2 {
entry:
  %this.addr = alloca ptr, align 8
  store ptr %this, ptr %this.addr, align 8
  %this1 = load ptr, ptr %this.addr, align 8
  ret ptr %this1
}

; Function Attrs: mustprogress uwtable
define void @_ZN6google8protobuf8compiler7Version9MergeImplERNS0_11MessageLiteERKS3_(ptr noundef nonnull align 8 dereferenceable(16) %to_msg, ptr noundef nonnull align 8 dereferenceable(16) %from_msg) #4 align 2 {
entry:
  %this.addr.i45 = alloca ptr, align 8
  %this.addr.i43 = alloca ptr, align 8
  %this.addr.i.i39 = alloca ptr, align 8
  %index.addr.i.i = alloca i32, align 4
  %this.addr.i40 = alloca ptr, align 8
  %value.addr.i = alloca ptr, align 8
  %this.addr.i.i = alloca ptr, align 8
  %retval.i = alloca ptr, align 8
  %this.addr.i35 = alloca ptr, align 8
  %default_instance.addr.i = alloca ptr, align 8
  %this.addr.i32 = alloca ptr, align 8
  %this.addr.i27 = alloca ptr, align 8
  %index.addr.i28 = alloca i32, align 4
  %this.addr.i25 = alloca ptr, align 8
  %index.addr.i = alloca i32, align 4
  %this.addr.i = alloca ptr, align 8
  %other.addr.i = alloca ptr, align 8
  %to_msg.addr = alloca ptr, align 8
  %from_msg.addr = alloca ptr, align 8
  %_this = alloca ptr, align 8
  %from = alloca ptr, align 8
  %ref.tmp = alloca %"class.absl::lts_20230802::log_internal::NullStream", align 1
  %cached_has_bits = alloca i32, align 4
  store ptr %to_msg, ptr %to_msg.addr, align 8
  store ptr %from_msg, ptr %from_msg.addr, align 8
  %0 = load ptr, ptr %to_msg.addr, align 8
  store ptr %0, ptr %_this, align 8
  %1 = load ptr, ptr %from_msg.addr, align 8
  store ptr %1, ptr %from, align 8
  br label %while.cond

while.cond:                                       ; preds = %while.body, %entry
  br i1 false, label %while.body, label %while.end

while.body:                                       ; preds = %while.cond
  %call = call noundef nonnull align 1 dereferenceable(1) ptr @_ZN4absl12lts_2023080212log_internal10NullStream14InternalStreamEv(ptr noundef nonnull align 1 dereferenceable(1) %ref.tmp)
  br label %while.cond, !llvm.loop !4

while.end:                                        ; preds = %while.cond
  store i32 0, ptr %cached_has_bits, align 4
  %2 = load ptr, ptr %from, align 8
  %3 = getelementptr inbounds %"class.google::protobuf::compiler::Version", ptr %2, i32 0, i32 1
  %_has_bits_ = getelementptr inbounds %"struct.google::protobuf::compiler::Version::Impl_", ptr %3, i32 0, i32 0
  store ptr %_has_bits_, ptr %this.addr.i27, align 8
  store i32 0, ptr %index.addr.i28, align 4
  %this1.i29 = load ptr, ptr %this.addr.i27, align 8
  %4 = load i32, ptr %index.addr.i28, align 4
  %idxprom.i30 = sext i32 %4 to i64
  %arrayidx.i31 = getelementptr inbounds [1 x i32], ptr %this1.i29, i64 0, i64 %idxprom.i30
  %5 = load i32, ptr %arrayidx.i31, align 4
  store i32 %5, ptr %cached_has_bits, align 4
  %6 = load i32, ptr %cached_has_bits, align 4
  %and = and i32 %6, 15
  %tobool = icmp ne i32 %and, 0
  br i1 %tobool, label %if.then, label %if.end21

if.then:                                          ; preds = %while.end
  %7 = load i32, ptr %cached_has_bits, align 4
  %and2 = and i32 %7, 1
  %tobool3 = icmp ne i32 %and2, 0
  br i1 %tobool3, label %if.then4, label %if.end

if.then4:                                         ; preds = %if.then
  %8 = load ptr, ptr %_this, align 8
  %9 = load ptr, ptr %from, align 8
  %call5 = call noundef nonnull align 8 dereferenceable(32) ptr @_ZNK6google8protobuf8compiler7Version16_internal_suffixB5cxx11Ev(ptr noundef nonnull align 8 dereferenceable(48) %9)
  store ptr %8, ptr %this.addr.i40, align 8
  store ptr %call5, ptr %value.addr.i, align 8
  %this1.i41 = load ptr, ptr %this.addr.i40, align 8
  %10 = getelementptr inbounds %"class.google::protobuf::compiler::Version", ptr %this1.i41, i32 0, i32 1
  store ptr %10, ptr %this.addr.i.i39, align 8
  store i32 0, ptr %index.addr.i.i, align 4
  %this1.i.i42 = load ptr, ptr %this.addr.i.i39, align 8
  %11 = load i32, ptr %index.addr.i.i, align 4
  %idxprom.i.i = sext i32 %11 to i64
  %arrayidx.i.i = getelementptr inbounds [1 x i32], ptr %this1.i.i42, i64 0, i64 %idxprom.i.i
  %12 = load i32, ptr %arrayidx.i.i, align 4
  %or.i = or i32 %12, 1
  store i32 %or.i, ptr %arrayidx.i.i, align 4
  %13 = getelementptr inbounds %"class.google::protobuf::compiler::Version", ptr %this1.i41, i32 0, i32 1
  %suffix_.i = getelementptr inbounds %"struct.google::protobuf::compiler::Version::Impl_", ptr %13, i32 0, i32 2
  %14 = load ptr, ptr %value.addr.i, align 8
  %call2.i = call noundef ptr @_ZNK6google8protobuf11MessageLite8GetArenaEv(ptr noundef nonnull align 8 dereferenceable(16) %this1.i41)
  call void @_ZN6google8protobuf8internal14ArenaStringPtr3SetIJEEEvRKNSt7__cxx1112basic_stringIcSt11char_traitsIcESaIcEEEPNS0_5ArenaE(ptr noundef nonnull align 8 dereferenceable(8) %suffix_.i, ptr noundef nonnull align 8 dereferenceable(32) %14, ptr noundef %call2.i)
  br label %if.end

if.end:                                           ; preds = %if.then4, %if.then
  %15 = load i32, ptr %cached_has_bits, align 4
  %and6 = and i32 %15, 2
  %tobool7 = icmp ne i32 %and6, 0
  br i1 %tobool7, label %if.then8, label %if.end10

if.then8:                                         ; preds = %if.end
  %16 = load ptr, ptr %from, align 8
  %17 = getelementptr inbounds %"class.google::protobuf::compiler::Version", ptr %16, i32 0, i32 1
  %major_ = getelementptr inbounds %"struct.google::protobuf::compiler::Version::Impl_", ptr %17, i32 0, i32 3
  %18 = load i32, ptr %major_, align 8
  %19 = load ptr, ptr %_this, align 8
  %20 = getelementptr inbounds %"class.google::protobuf::compiler::Version", ptr %19, i32 0, i32 1
  %major_9 = getelementptr inbounds %"struct.google::protobuf::compiler::Version::Impl_", ptr %20, i32 0, i32 3
  store i32 %18, ptr %major_9, align 8
  br label %if.end10

if.end10:                                         ; preds = %if.then8, %if.end
  %21 = load i32, ptr %cached_has_bits, align 4
  %and11 = and i32 %21, 4
  %tobool12 = icmp ne i32 %and11, 0
  br i1 %tobool12, label %if.then13, label %if.end15

if.then13:                                        ; preds = %if.end10
  %22 = load ptr, ptr %from, align 8
  %23 = getelementptr inbounds %"class.google::protobuf::compiler::Version", ptr %22, i32 0, i32 1
  %minor_ = getelementptr inbounds %"struct.google::protobuf::compiler::Version::Impl_", ptr %23, i32 0, i32 4
  %24 = load i32, ptr %minor_, align 4
  %25 = load ptr, ptr %_this, align 8
  %26 = getelementptr inbounds %"class.google::protobuf::compiler::Version", ptr %25, i32 0, i32 1
  %minor_14 = getelementptr inbounds %"struct.google::protobuf::compiler::Version::Impl_", ptr %26, i32 0, i32 4
  store i32 %24, ptr %minor_14, align 4
  br label %if.end15

if.end15:                                         ; preds = %if.then13, %if.end10
  %27 = load i32, ptr %cached_has_bits, align 4
  %and16 = and i32 %27, 8
  %tobool17 = icmp ne i32 %and16, 0
  br i1 %tobool17, label %if.then18, label %if.end20

if.then18:                                        ; preds = %if.end15
  %28 = load ptr, ptr %from, align 8
  %29 = getelementptr inbounds %"class.google::protobuf::compiler::Version", ptr %28, i32 0, i32 1
  %patch_ = getelementptr inbounds %"struct.google::protobuf::compiler::Version::Impl_", ptr %29, i32 0, i32 5
  %30 = load i32, ptr %patch_, align 8
  %31 = load ptr, ptr %_this, align 8
  %32 = getelementptr inbounds %"class.google::protobuf::compiler::Version", ptr %31, i32 0, i32 1
  %patch_19 = getelementptr inbounds %"struct.google::protobuf::compiler::Version::Impl_", ptr %32, i32 0, i32 5
  store i32 %30, ptr %patch_19, align 8
  br label %if.end20

if.end20:                                         ; preds = %if.then18, %if.end15
  br label %if.end21

if.end21:                                         ; preds = %if.end20, %while.end
  %33 = load i32, ptr %cached_has_bits, align 4
  %34 = load ptr, ptr %_this, align 8
  %35 = getelementptr inbounds %"class.google::protobuf::compiler::Version", ptr %34, i32 0, i32 1
  %_has_bits_22 = getelementptr inbounds %"struct.google::protobuf::compiler::Version::Impl_", ptr %35, i32 0, i32 0
  store ptr %_has_bits_22, ptr %this.addr.i25, align 8
  store i32 0, ptr %index.addr.i, align 4
  %this1.i26 = load ptr, ptr %this.addr.i25, align 8
  %36 = load i32, ptr %index.addr.i, align 4
  %idxprom.i = sext i32 %36 to i64
  %arrayidx.i = getelementptr inbounds [1 x i32], ptr %this1.i26, i64 0, i64 %idxprom.i
  %37 = load i32, ptr %arrayidx.i, align 4
  %or = or i32 %37, %33
  store i32 %or, ptr %arrayidx.i, align 4
  %38 = load ptr, ptr %_this, align 8
  %_internal_metadata_ = getelementptr inbounds %"class.google::protobuf::MessageLite", ptr %38, i32 0, i32 1
  %39 = load ptr, ptr %from, align 8
  %_internal_metadata_24 = getelementptr inbounds %"class.google::protobuf::MessageLite", ptr %39, i32 0, i32 1
  store ptr %_internal_metadata_, ptr %this.addr.i, align 8
  store ptr %_internal_metadata_24, ptr %other.addr.i, align 8
  %this1.i = load ptr, ptr %this.addr.i, align 8
  %40 = load ptr, ptr %other.addr.i, align 8
  store ptr %40, ptr %this.addr.i32, align 8
  %this1.i33 = load ptr, ptr %this.addr.i32, align 8
  store ptr %this1.i33, ptr %this.addr.i45, align 8
  %this1.i46 = load ptr, ptr %this.addr.i45, align 8
  %41 = load i64, ptr %this1.i46, align 8
  %and.i47 = and i64 %41, 1
  %tobool.i48 = icmp ne i64 %and.i47, 0
  br i1 %tobool.i48, label %if.then.i, label %_ZN6google8protobuf8internal16InternalMetadata9MergeFromINS0_15UnknownFieldSetEEEvRKS2_.exit

if.then.i:                                        ; preds = %if.end21
  %42 = load ptr, ptr %other.addr.i, align 8
  store ptr %42, ptr %this.addr.i35, align 8
  store ptr null, ptr %default_instance.addr.i, align 8
  %this1.i36 = load ptr, ptr %this.addr.i35, align 8
  store ptr %this1.i36, ptr %this.addr.i.i, align 8
  %this1.i.i = load ptr, ptr %this.addr.i.i, align 8
  store ptr %this1.i.i, ptr %this.addr.i43, align 8
  %this1.i44 = load ptr, ptr %this.addr.i43, align 8
  %43 = load i64, ptr %this1.i44, align 8
  %and.i = and i64 %43, 1
  %tobool.i = icmp ne i64 %and.i, 0
  br i1 %tobool.i, label %if.then.i37, label %if.else.i

if.then.i37:                                      ; preds = %if.then.i
  %call2.i38 = call noundef ptr @_ZNK6google8protobuf8internal16InternalMetadata8PtrValueINS2_9ContainerINS0_15UnknownFieldSetEEEEEPT_v(ptr noundef nonnull align 8 dereferenceable(8) %this1.i36)
  %unknown_fields.i = getelementptr inbounds %"struct.google::protobuf::internal::InternalMetadata::Container", ptr %call2.i38, i32 0, i32 1
  store ptr %unknown_fields.i, ptr %retval.i, align 8
  br label %_ZNK6google8protobuf8internal16InternalMetadata14unknown_fieldsINS0_15UnknownFieldSetEEERKT_PFS7_vE.exit

if.else.i:                                        ; preds = %if.then.i
  %44 = load ptr, ptr %default_instance.addr.i, align 8
  %call3.i = call noundef nonnull align 8 dereferenceable(24) ptr %44()
  store ptr %call3.i, ptr %retval.i, align 8
  br label %_ZNK6google8protobuf8internal16InternalMetadata14unknown_fieldsINS0_15UnknownFieldSetEEERKT_PFS7_vE.exit

_ZNK6google8protobuf8internal16InternalMetadata14unknown_fieldsINS0_15UnknownFieldSetEEERKT_PFS7_vE.exit: ; preds = %if.else.i, %if.then.i37
  %45 = load ptr, ptr %retval.i, align 8
  call void @_ZN6google8protobuf8internal16InternalMetadata11DoMergeFromINS0_15UnknownFieldSetEEEvRKT_(ptr noundef nonnull align 8 dereferenceable(8) %this1.i, ptr noundef nonnull align 8 dereferenceable(24) %45)
  br label %_ZN6google8protobuf8internal16InternalMetadata9MergeFromINS0_15UnknownFieldSetEEEvRKS2_.exit

_ZN6google8protobuf8internal16InternalMetadata9MergeFromINS0_15UnknownFieldSetEEEvRKS2_.exit: ; preds = %_ZNK6google8protobuf8internal16InternalMetadata14unknown_fieldsINS0_15UnknownFieldSetEEERKT_PFS7_vE.exit, %if.end21
  ret void
}