; Function Attrs: mustprogress uwtable
define void @_ZN6google8protobuf8compiler7Version9MergeImplERNS0_11MessageLiteERKS3_(ptr noundef nonnull align 8 dereferenceable(16) %to_msg, ptr nocapture noundef nonnull readonly align 8 dereferenceable(16) %from_msg) #3 align 2 {
entry:
  %0 = getelementptr inbounds i8, ptr %from_msg, i64 16
  %1 = load i32, ptr %0, align 8
  %and = and i32 %1, 15
  %tobool.not = icmp eq i32 %and, 0
  br i1 %tobool.not, label %if.end21, label %if.then

if.then:                                          ; preds = %entry
  %and2 = and i32 %1, 1
  %tobool3.not = icmp eq i32 %and2, 0
  br i1 %tobool3.not, label %if.end, label %if.then4

if.then4:                                         ; preds = %if.then
  %suffix_.i17 = getelementptr inbounds i8, ptr %from_msg, i64 24
  %2 = load ptr, ptr %suffix_.i17, align 8
  %3 = ptrtoint ptr %2 to i64
  %and.i.i = and i64 %3, -4
  %4 = inttoptr i64 %and.i.i to ptr
  %5 = getelementptr inbounds i8, ptr %to_msg, i64 16
  %6 = load i32, ptr %5, align 8
  %or.i = or i32 %6, 1
  store i32 %or.i, ptr %5, align 8
  %suffix_.i = getelementptr inbounds i8, ptr %to_msg, i64 24
  %_internal_metadata_.i = getelementptr inbounds i8, ptr %to_msg, i64 8
  %7 = load i64, ptr %_internal_metadata_.i, align 8
  %and.i.i.i = and i64 %7, 1
  %tobool.i.i.not.i = icmp eq i64 %and.i.i.i, 0
  br i1 %tobool.i.i.not.i, label %if.else.i.i, label %if.then.i.i

if.then.i.i:                                      ; preds = %if.then4
  %and.i.i18 = and i64 %7, -2
  %8 = inttoptr i64 %and.i.i18 to ptr
  %9 = load ptr, ptr %8, align 8
  br label %_ZNK6google8protobuf11MessageLite8GetArenaEv.exit

if.else.i.i:                                      ; preds = %if.then4
  %10 = inttoptr i64 %7 to ptr
  br label %_ZNK6google8protobuf11MessageLite8GetArenaEv.exit

_ZNK6google8protobuf11MessageLite8GetArenaEv.exit: ; preds = %if.then.i.i, %if.else.i.i
  %retval.i.0.i = phi ptr [ %9, %if.then.i.i ], [ %10, %if.else.i.i ]
  tail call void @_ZN6google8protobuf8internal14ArenaStringPtr3SetIJEEEvRKNSt7__cxx1112basic_stringIcSt11char_traitsIcESaIcEEEPNS0_5ArenaE(ptr noundef nonnull align 8 dereferenceable(8) %suffix_.i, ptr noundef nonnull align 8 dereferenceable(32) %4, ptr noundef %retval.i.0.i)
  br label %if.end

if.end:                                           ; preds = %_ZNK6google8protobuf11MessageLite8GetArenaEv.exit, %if.then
  %and6 = and i32 %1, 2
  %tobool7.not = icmp eq i32 %and6, 0
  br i1 %tobool7.not, label %if.end10, label %if.then8

if.then8:                                         ; preds = %if.end
  %major_ = getelementptr inbounds i8, ptr %from_msg, i64 32
  %11 = load i32, ptr %major_, align 8
  %major_9 = getelementptr inbounds i8, ptr %to_msg, i64 32
  store i32 %11, ptr %major_9, align 8
  br label %if.end10

if.end10:                                         ; preds = %if.then8, %if.end
  %and11 = and i32 %1, 4
  %tobool12.not = icmp eq i32 %and11, 0
  br i1 %tobool12.not, label %if.end15, label %if.then13

if.then13:                                        ; preds = %if.end10
  %minor_ = getelementptr inbounds i8, ptr %from_msg, i64 36
  %12 = load i32, ptr %minor_, align 4
  %minor_14 = getelementptr inbounds i8, ptr %to_msg, i64 36
  store i32 %12, ptr %minor_14, align 4
  br label %if.end15

if.end15:                                         ; preds = %if.then13, %if.end10
  %and16 = and i32 %1, 8
  %tobool17.not = icmp eq i32 %and16, 0
  br i1 %tobool17.not, label %if.end21, label %if.then18

if.then18:                                        ; preds = %if.end15
  %patch_ = getelementptr inbounds i8, ptr %from_msg, i64 40
  %13 = load i32, ptr %patch_, align 8
  %patch_19 = getelementptr inbounds i8, ptr %to_msg, i64 40
  store i32 %13, ptr %patch_19, align 8
  br label %if.end21

if.end21:                                         ; preds = %if.end15, %if.then18, %entry
  %14 = getelementptr inbounds i8, ptr %to_msg, i64 16
  %15 = load i32, ptr %14, align 8
  %or = or i32 %15, %1
  store i32 %or, ptr %14, align 8
  %_internal_metadata_24 = getelementptr inbounds i8, ptr %from_msg, i64 8
  %16 = load i64, ptr %_internal_metadata_24, align 8
  %and.i47 = and i64 %16, 1
  %tobool.i48.not = icmp eq i64 %and.i47, 0
  br i1 %tobool.i48.not, label %_ZN6google8protobuf8internal16InternalMetadata9MergeFromINS0_15UnknownFieldSetEEEvRKS2_.exit, label %if.then.i37

if.then.i37:                                      ; preds = %if.end21
  %_internal_metadata_ = getelementptr inbounds i8, ptr %to_msg, i64 8
  %and.i = and i64 %16, -2
  %17 = inttoptr i64 %and.i to ptr
  %unknown_fields.i = getelementptr inbounds i8, ptr %17, i64 8
  tail call void @_ZN6google8protobuf8internal16InternalMetadata11DoMergeFromINS0_15UnknownFieldSetEEEvRKT_(ptr noundef nonnull align 8 dereferenceable(8) %_internal_metadata_, ptr noundef nonnull align 8 dereferenceable(24) %unknown_fields.i)
  br label %_ZN6google8protobuf8internal16InternalMetadata9MergeFromINS0_15UnknownFieldSetEEEvRKS2_.exit

_ZN6google8protobuf8internal16InternalMetadata9MergeFromINS0_15UnknownFieldSetEEEvRKS2_.exit: ; preds = %if.then.i37, %if.end21
  ret void
}